target datalayout = "e-m:e-p270:32:32-p271:32:32-p272:64:64-i64:64-i128:128-f80:128-n8:16:32:64-S128"
target triple = "x86_64-pc-linux-gnu"

%struct.archive_write = type { %struct.archive, i32, i64, i64, ptr, i64, ptr, ptr, ptr, ptr, ptr, i32, i32, ptr, ptr, ptr, ptr, ptr, ptr, ptr, ptr, ptr, ptr, ptr, ptr, ptr, ptr }
%struct.archive = type { i32, i32, ptr, i32, ptr, i32, i32, ptr, %struct.archive_string, ptr, i32, i32, ptr, ptr, i64, i64, i64, i8, i64 }
%struct.archive_string = type { ptr, i64, i64 }
%struct.archive_write_filter = type { i64, ptr, ptr, ptr, ptr, ptr, ptr, ptr, ptr, ptr, ptr, i32, i32, i32, i32 }

; Function Attrs: nounwind uwtable
define internal i32 @archive_write_client_free(ptr noundef %0) #0 {
  %2 = alloca ptr, align 8
  %3 = alloca ptr, align 8
  store ptr %0, ptr %2, align 8, !tbaa !33
  call void @llvm.lifetime.start.p0(i64 8, ptr %3) #9
  %4 = load ptr, ptr %2, align 8, !tbaa !33
  %5 = getelementptr inbounds nuw %struct.archive_write_filter, ptr %4, i32 0, i32 1
  %6 = load ptr, ptr %5, align 8, !tbaa !34
  store ptr %6, ptr %3, align 8, !tbaa !4
  %7 = load ptr, ptr %3, align 8, !tbaa !4
  %8 = getelementptr inbounds nuw %struct.archive_write, ptr %7, i32 0, i32 9
  %9 = load ptr, ptr %8, align 8, !tbaa !48
  %10 = icmp ne ptr %9, null
  br i1 %10, label %11, label %21

11:                                               ; preds = %1
  %12 = load ptr, ptr %3, align 8, !tbaa !4
  %13 = getelementptr inbounds nuw %struct.archive_write, ptr %12, i32 0, i32 9
  %14 = load ptr, ptr %13, align 8, !tbaa !48
  %15 = load ptr, ptr %3, align 8, !tbaa !4
  %16 = getelementptr inbounds nuw %struct.archive_write, ptr %15, i32 0, i32 0
  %17 = load ptr, ptr %3, align 8, !tbaa !4
  %18 = getelementptr inbounds nuw %struct.archive_write, ptr %17, i32 0, i32 10
  %19 = load ptr, ptr %18, align 8, !tbaa !49
  %20 = call i32 %14(ptr noundef %16, ptr noundef %19)
  br label %21

21:                                               ; preds = %11, %1
  %22 = load ptr, ptr %3, align 8, !tbaa !4
  %23 = getelementptr inbounds nuw %struct.archive_write, ptr %22, i32 0, i32 10
  store ptr null, ptr %23, align 8, !tbaa !49
  %24 = load ptr, ptr %3, align 8, !tbaa !4
  %25 = getelementptr inbounds nuw %struct.archive_write, ptr %24, i32 0, i32 24
  %26 = load ptr, ptr %25, align 8, !tbaa !68
  %27 = icmp ne ptr %26, null
  br i1 %27, label %28, label %41

28:                                               ; preds = %21
  %29 = load ptr, ptr %3, align 8, !tbaa !4
  %30 = getelementptr inbounds nuw %struct.archive_write, ptr %29, i32 0, i32 24
  %31 = load ptr, ptr %30, align 8, !tbaa !68
  %32 = load ptr, ptr %3, align 8, !tbaa !4
  %33 = getelementptr inbounds nuw %struct.archive_write, ptr %32, i32 0, i32 24
  %34 = load ptr, ptr %33, align 8, !tbaa !68
  %35 = call i64 @strlen(ptr noundef %34) #12
  call void @llvm.memset.p0.i64(ptr align 1 %31, i8 0, i64 %35, i1 false)
  %36 = load ptr, ptr %3, align 8, !tbaa !4
  %37 = getelementptr inbounds nuw %struct.archive_write, ptr %36, i32 0, i32 24
  %38 = load ptr, ptr %37, align 8, !tbaa !68
  call void @free(ptr noundef %38) #9
  %39 = load ptr, ptr %3, align 8, !tbaa !4
  %40 = getelementptr inbounds nuw %struct.archive_write, ptr %39, i32 0, i32 24
  store ptr null, ptr %40, align 8, !tbaa !68
  br label %41

41:                                               ; preds = %28, %21
  call void @llvm.lifetime.end.p0(i64 8, ptr %3) #9
  ret i32 0
}