; Function Attrs: nounwind uwtable
define internal noundef i32 @archive_write_client_free(ptr noundef readonly captures(none) %0) #3 {
  %2 = getelementptr inbounds nuw i8, ptr %0, i64 8
  %3 = load ptr, ptr %2, align 8, !tbaa !26
  %4 = getelementptr inbounds nuw i8, ptr %3, i64 208
  %5 = load ptr, ptr %4, align 8, !tbaa !38
  %.not = icmp eq ptr %5, null
  br i1 %.not, label %10, label %6

6:                                                ; preds = %1
  %7 = getelementptr inbounds nuw i8, ptr %3, i64 216
  %8 = load ptr, ptr %7, align 8, !tbaa !39
  %9 = tail call i32 %5(ptr noundef nonnull %3, ptr noundef %8) #13
  br label %10

10:                                               ; preds = %6, %1
  %11 = getelementptr inbounds nuw i8, ptr %3, i64 216
  store ptr null, ptr %11, align 8, !tbaa !39
  %12 = getelementptr inbounds nuw i8, ptr %3, i64 320
  %13 = load ptr, ptr %12, align 8, !tbaa !60
  %.not12 = icmp eq ptr %13, null
  br i1 %.not12, label %17, label %14

14:                                               ; preds = %10
  %15 = tail call i64 @strlen(ptr noundef nonnull dereferenceable(1) %13) #15
  tail call void @llvm.memset.p0.i64(ptr nonnull align 1 %13, i8 0, i64 %15, i1 false)
  %16 = load ptr, ptr %12, align 8, !tbaa !60
  tail call void @free(ptr noundef %16) #13
  store ptr null, ptr %12, align 8, !tbaa !60
  br label %17

17:                                               ; preds = %14, %10
  ret i32 0
}